; Function Attrs: mustprogress nofree norecurse nosync nounwind memory(read, argmem: readwrite, inaccessiblemem: none) uwtable
define dso_local noundef zeroext i1 @_ZN4Json9OurReader17readCStyleCommentEv(ptr nocapture noundef nonnull align 8 dereferenceable(281) %0) local_unnamed_addr #12 align 2 {
  %2 = getelementptr inbounds i8, ptr %0, i64 208
  %3 = getelementptr inbounds i8, ptr %0, i64 200
  %4 = load ptr, ptr %3, align 8
  %.promoted = load ptr, ptr %2, align 8
  %.not4 = icmp eq ptr %.promoted, %4
  br i1 %.not4, label %_ZN4Json9OurReader11getNextCharEv.exit2, label %_ZN4Json9OurReader11getNextCharEv.exit

_ZN4Json9OurReader11getNextCharEv.exit:           ; preds = %1, %_ZN4Json9OurReader11getNextCharEv.exit.backedge
  %5 = phi ptr [ %6, %_ZN4Json9OurReader11getNextCharEv.exit.backedge ], [ %.promoted, %1 ]
  %6 = getelementptr inbounds i8, ptr %5, i64 1
  store ptr %6, ptr %2, align 8
  %7 = load i8, ptr %5, align 1
  %8 = icmp eq i8 %7, 42
  br i1 %8, label %9, label %12

9:                                                ; preds = %_ZN4Json9OurReader11getNextCharEv.exit
  %10 = load i8, ptr %6, align 1
  %11 = icmp eq i8 %10, 47
  %.not = icmp eq ptr %6, %4
  %or.cond = select i1 %11, i1 true, i1 %.not
  br i1 %or.cond, label %._crit_edge, label %_ZN4Json9OurReader11getNextCharEv.exit.backedge

12:                                               ; preds = %_ZN4Json9OurReader11getNextCharEv.exit
  %.not.old = icmp eq ptr %6, %4
  br i1 %.not.old, label %._crit_edge, label %_ZN4Json9OurReader11getNextCharEv.exit.backedge

_ZN4Json9OurReader11getNextCharEv.exit.backedge:  ; preds = %12, %9
  br label %_ZN4Json9OurReader11getNextCharEv.exit, !llvm.loop !160

._crit_edge:                                      ; preds = %12, %9
  %13 = icmp eq ptr %6, %4
  br i1 %13, label %_ZN4Json9OurReader11getNextCharEv.exit2, label %14

14:                                               ; preds = %._crit_edge
  %15 = getelementptr inbounds i8, ptr %5, i64 2
  store ptr %15, ptr %2, align 8
  %16 = load i8, ptr %6, align 1
  %17 = icmp eq i8 %16, 47
  br label %_ZN4Json9OurReader11getNextCharEv.exit2

_ZN4Json9OurReader11getNextCharEv.exit2:          ; preds = %1, %._crit_edge, %14
  %.0.i1 = phi i1 [ %17, %14 ], [ false, %._crit_edge ], [ false, %1 ]
  ret i1 %.0.i1
}